---
triple:          'arm64-apple-darwin'
binary-path:     test
relocations:
  - { offsetInCU: 0x326D, offset: 0x326D, size: 0x8, addend: 0x0, symName: __ZNSt3__16chronomiB7v160006IxNS_5ratioILl1ELl1000000000EEExS3_EENS_11common_typeIJNS0_8durationIT_T0_EENS5_IT1_T2_EEEE4typeERKS8_RKSB_, symObjAddr: 0xDC0, symBinAddr: 0x100001B44, symSize: 0x70 }
  - { offsetInCU: 0x351D, offset: 0x351D, size: 0x8, addend: 0x0, symName: __ZNSt3__16chronomiB7v160006INS0_12steady_clockENS0_8durationIxNS_5ratioILl1ELl1000000000EEEEES6_EENS_11common_typeIJT0_T1_EE4typeERKNS0_10time_pointIT_S8_EERKNSC_ISD_S9_EE, symObjAddr: 0x808, symBinAddr: 0x10000158C, symSize: 0x58 }
  - { offsetInCU: 0x3666, offset: 0x3666, size: 0x8, addend: 0x0, symName: __ZNSt3__16chrono13duration_castB7v160006INS0_8durationIdNS_5ratioILl1ELl1000EEEEExNS3_ILl1ELl1000000000EEEEENS_9enable_ifIXsr13__is_durationIT_EE5valueES8_E4typeERKNS2_IT0_T1_EE, symObjAddr: 0xF14, symBinAddr: 0x100001C98, symSize: 0x30 }
  - { offsetInCU: 0x3904, offset: 0x3904, size: 0x8, addend: 0x0, symName: __ZNSt3__124__put_character_sequenceB7v160006IcNS_11char_traitsIcEEEERNS_13basic_ostreamIT_T0_EES7_PKS4_m, symObjAddr: 0x1634, symBinAddr: 0x1000023B8, symSize: 0x1EC }
  - { offsetInCU: 0x66AD, offset: 0x66AD, size: 0x8, addend: 0x0, symName: __ZNSt3__1lsB7v160006INS_11char_traitsIcEEEERNS_13basic_ostreamIcT_EES6_c, symObjAddr: 0x78C, symBinAddr: 0x100001510, symSize: 0x34 }
  - { offsetInCU: 0x66F3, offset: 0x66F3, size: 0x8, addend: 0x0, symName: __ZNSt3__1lsB7v160006INS_11char_traitsIcEEEERNS_13basic_ostreamIcT_EES6_PKc, symObjAddr: 0x7C0, symBinAddr: 0x100001544, symSize: 0x48 }
  - { offsetInCU: 0x6868, offset: 0x6868, size: 0x8, addend: 0x0, symName: __ZNSt3__110destroy_atB7v160006IiLi0EEEvPT_, symObjAddr: 0x122C, symBinAddr: 0x100001FB0, symSize: 0x24 }
  - { offsetInCU: 0x689F, offset: 0x689F, size: 0x8, addend: 0x0, symName: __ZNSt3__112__destroy_atB7v160006IiLi0EEEvPT_, symObjAddr: 0x1250, symBinAddr: 0x100001FD4, symSize: 0x10 }
  - { offsetInCU: 0x68D6, offset: 0x68D6, size: 0x8, addend: 0x0, symName: __ZNSt3__119__libcpp_deallocateB7v160006EPvmm, symObjAddr: 0x12A0, symBinAddr: 0x100002024, symSize: 0x60 }
  - { offsetInCU: 0x693B, offset: 0x693B, size: 0x8, addend: 0x0, symName: __ZNSt3__124__is_overaligned_for_newB7v160006Em, symObjAddr: 0x1300, symBinAddr: 0x100002084, symSize: 0x20 }
  - { offsetInCU: 0x6969, offset: 0x6969, size: 0x8, addend: 0x0, symName: __ZNSt3__127__do_deallocate_handle_sizeB7v160006IJSt11align_val_tEEEvPvmDpT_, symObjAddr: 0x1320, symBinAddr: 0x1000020A4, symSize: 0x30 }
  - { offsetInCU: 0x69BC, offset: 0x69BC, size: 0x8, addend: 0x0, symName: __ZNSt3__127__do_deallocate_handle_sizeB7v160006IJEEEvPvmDpT_, symObjAddr: 0x1350, symBinAddr: 0x1000020D4, symSize: 0x28 }
  - { offsetInCU: 0x69FA, offset: 0x69FA, size: 0x8, addend: 0x0, symName: __ZNSt3__124__libcpp_operator_deleteB7v160006IJPvSt11align_val_tEEEvDpT_, symObjAddr: 0x1378, symBinAddr: 0x1000020FC, symSize: 0x2C }
  - { offsetInCU: 0x6A43, offset: 0x6A43, size: 0x8, addend: 0x0, symName: __ZNSt3__124__libcpp_operator_deleteB7v160006IJPvEEEvDpT_, symObjAddr: 0x13A4, symBinAddr: 0x100002128, symSize: 0x24 }
  - { offsetInCU: 0x6A78, offset: 0x6A78, size: 0x8, addend: 0x0, symName: __ZNSt3__116__pad_and_outputB7v160006IcNS_11char_traitsIcEEEENS_19ostreambuf_iteratorIT_T0_EES6_PKS4_S8_S8_RNS_8ios_baseES4_, symObjAddr: 0x1870, symBinAddr: 0x1000025F4, symSize: 0x240 }
  - { offsetInCU: 0x6B47, offset: 0x6B47, size: 0x8, addend: 0x0, symName: __ZNSt3__119__debug_db_insert_cB7v160006INS_12basic_stringIcNS_11char_traitsIcEENS_9allocatorIcEEEEEEvPT_, symObjAddr: 0x1D24, symBinAddr: 0x100002AA8, symSize: 0x10 }
  - { offsetInCU: 0x6B78, offset: 0x6B78, size: 0x8, addend: 0x0, symName: __ZNSt3__112__to_addressB7v160006IcEEPT_S2_, symObjAddr: 0x1DF0, symBinAddr: 0x100002B74, symSize: 0x14 }
  - { offsetInCU: 0x6BAD, offset: 0x6BAD, size: 0x8, addend: 0x0, symName: __ZNSt3__19use_facetB7v160006INS_5ctypeIcEEEERKT_RKNS_6localeE, symObjAddr: 0x20A8, symBinAddr: 0x100002E2C, symSize: 0x2C }
  - { offsetInCU: 0x707C, offset: 0x707C, size: 0x8, addend: 0x0, symName: __ZNSt3__118__constexpr_strlenB7v160006EPKc, symObjAddr: 0x2140, symBinAddr: 0x100002EC4, symSize: 0x24 }
  - { offsetInCU: 0x7501, offset: 0x7501, size: 0x8, addend: 0x0, symName: __ZNSt3__117__libcpp_allocateB7v160006Emm, symObjAddr: 0x254C, symBinAddr: 0x1000032D0, symSize: 0x60 }
  - { offsetInCU: 0x7747, offset: 0x7747, size: 0x8, addend: 0x0, symName: __ZNSt3__121__libcpp_operator_newB7v160006IJmSt11align_val_tEEEPvDpT_, symObjAddr: 0x25C8, symBinAddr: 0x10000334C, symSize: 0x2C }
  - { offsetInCU: 0x7794, offset: 0x7794, size: 0x8, addend: 0x0, symName: __ZNSt3__121__libcpp_operator_newB7v160006IJmEEEPvDpT_, symObjAddr: 0x25F4, symBinAddr: 0x100003378, symSize: 0x24 }
  - { offsetInCU: 0x77F2, offset: 0x77F2, size: 0x8, addend: 0x0, symName: __ZNSt3__112construct_atB7v160006IiJRKiEPiEEPT_S5_DpOT0_, symObjAddr: 0x2758, symBinAddr: 0x1000034DC, symSize: 0x2C }
  - { offsetInCU: 0x7B31, offset: 0x7B31, size: 0x8, addend: 0x0, symName: __ZSt28__throw_bad_array_new_lengthB7v160006v, symObjAddr: 0x2518, symBinAddr: 0x10000329C, symSize: 0x34 }
  - { offsetInCU: 0x7E62, offset: 0x7E62, size: 0x8, addend: 0x0, symName: __ZNKSt3__16chrono15__duration_castINS0_8durationIxNS_5ratioILl1ELl1000000000EEEEENS2_IdNS3_ILl1ELl1000EEEEENS3_ILl1ELl1000000EEELb1ELb0EEclB7v160006ERKS5_, symObjAddr: 0xF44, symBinAddr: 0x100001CC8, symSize: 0x50 }
  - { offsetInCU: 0xA859, offset: 0xA859, size: 0x8, addend: 0x0, symName: _main, symObjAddr: 0x0, symBinAddr: 0x100000D84, symSize: 0x470 }
  - { offsetInCU: 0xA9A3, offset: 0xA9A3, size: 0x8, addend: 0x0, symName: __ZN16SingleLinkedListIiEC1Ev, symObjAddr: 0x470, symBinAddr: 0x1000011F4, symSize: 0x2C }
  - { offsetInCU: 0xA9CE, offset: 0xA9CE, size: 0x8, addend: 0x0, symName: __ZN16SingleLinkedListIiE10push_frontERKi, symObjAddr: 0x49C, symBinAddr: 0x100001220, symSize: 0xF8 }
  - { offsetInCU: 0xAA04, offset: 0xAA04, size: 0x8, addend: 0x0, symName: __ZN16SingleLinkedListIiE9pop_frontEv, symObjAddr: 0x594, symBinAddr: 0x100001318, symSize: 0x10C }
  - { offsetInCU: 0xAA3B, offset: 0xAA3B, size: 0x8, addend: 0x0, symName: __ZNK16SingleLinkedListIiE12before_beginEv, symObjAddr: 0x6A0, symBinAddr: 0x100001424, symSize: 0x3C }
  - { offsetInCU: 0xAA63, offset: 0xAA63, size: 0x8, addend: 0x0, symName: __ZN16SingleLinkedListIiE14const_iteratorC1ERKNS0_8iteratorE, symObjAddr: 0x6DC, symBinAddr: 0x100001460, symSize: 0x34 }
  - { offsetInCU: 0xAA9C, offset: 0xAA9C, size: 0x8, addend: 0x0, symName: __ZN16SingleLinkedListIiE12insert_afterERKNS0_14const_iteratorERKi, symObjAddr: 0x710, symBinAddr: 0x100001494, symSize: 0x7C }
  - { offsetInCU: 0xAAE5, offset: 0xAAE5, size: 0x8, addend: 0x0, symName: __ZNSt3__16chrono8durationIdNS_5ratioILl1ELl1000EEEEC1B7v160006IxNS2_ILl1ELl1000000000EEEEERKNS1_IT_T0_EEPNS_9enable_ifIXaasr13__no_overflowIS8_S3_EE5valueooL_ZNS_17integral_constantIbLb1EE5valueEEaaeqsr13__no_overflowIS8_S3_E4typeE3denLi1Entsr23treat_as_floating_pointIS7_EE5valueEvE4typeE, symObjAddr: 0x860, symBinAddr: 0x1000015E4, symSize: 0x3C }
  - { offsetInCU: 0xAB3C, offset: 0xAB3C, size: 0x8, addend: 0x0, symName: __ZNKSt3__16chrono8durationIdNS_5ratioILl1ELl1000EEEE5countB7v160006Ev, symObjAddr: 0x89C, symBinAddr: 0x100001620, symSize: 0x18 }
  - { offsetInCU: 0xAB62, offset: 0xAB62, size: 0x8, addend: 0x0, symName: __ZNSt3__112forward_listIiNS_9allocatorIiEEEC1B7v160006Ev, symObjAddr: 0x8B4, symBinAddr: 0x100001638, symSize: 0x2C }
  - { offsetInCU: 0xAB8C, offset: 0xAB8C, size: 0x8, addend: 0x0, symName: __ZNSt3__112forward_listIiNS_9allocatorIiEEE10push_frontERKi, symObjAddr: 0x8E0, symBinAddr: 0x100001664, symSize: 0x108 }
  - { offsetInCU: 0xABE1, offset: 0xABE1, size: 0x8, addend: 0x0, symName: __ZNSt3__112forward_listIiNS_9allocatorIiEEE9pop_frontEv, symObjAddr: 0x9E8, symBinAddr: 0x10000176C, symSize: 0x80 }
  - { offsetInCU: 0xAC27, offset: 0xAC27, size: 0x8, addend: 0x0, symName: __ZNSt3__112forward_listIiNS_9allocatorIiEEE12before_beginB7v160006Ev, symObjAddr: 0xA68, symBinAddr: 0x1000017EC, symSize: 0x34 }
  - { offsetInCU: 0xAC4D, offset: 0xAC4D, size: 0x8, addend: 0x0, symName: __ZNSt3__129__forward_list_const_iteratorIPNS_19__forward_list_nodeIiPvEEEC1B7v160006ENS_23__forward_list_iteratorIS4_EE, symObjAddr: 0xA9C, symBinAddr: 0x100001820, symSize: 0x34 }
  - { offsetInCU: 0xAC86, offset: 0xAC86, size: 0x8, addend: 0x0, symName: __ZNSt3__112forward_listIiNS_9allocatorIiEEE12insert_afterENS_29__forward_list_const_iteratorIPNS_19__forward_list_nodeIiPvEEEERKi, symObjAddr: 0xAD0, symBinAddr: 0x100001854, symSize: 0x120 }
  - { offsetInCU: 0xACFA, offset: 0xACFA, size: 0x8, addend: 0x0, symName: __ZNKSt3__112forward_listIiNS_9allocatorIiEEE6cbeginB7v160006Ev, symObjAddr: 0xBF0, symBinAddr: 0x100001974, symSize: 0x34 }
  - { offsetInCU: 0xAD20, offset: 0xAD20, size: 0x8, addend: 0x0, symName: __ZNK16SingleLinkedListIiE6cbeginEv, symObjAddr: 0xC24, symBinAddr: 0x1000019A8, symSize: 0x40 }
  - { offsetInCU: 0xAD48, offset: 0xAD48, size: 0x8, addend: 0x0, symName: __ZNK16SingleLinkedListIiE14const_iteratorneERKS1_, symObjAddr: 0xC64, symBinAddr: 0x1000019E8, symSize: 0x30 }
  - { offsetInCU: 0xAD7D, offset: 0xAD7D, size: 0x8, addend: 0x0, symName: __ZNK16SingleLinkedListIiE4cendEv, symObjAddr: 0xC94, symBinAddr: 0x100001A18, symSize: 0x38 }
  - { offsetInCU: 0xADA5, offset: 0xADA5, size: 0x8, addend: 0x0, symName: __ZN16SingleLinkedListIiE14const_iteratordeEv, symObjAddr: 0xCCC, symBinAddr: 0x100001A50, symSize: 0x18 }
  - { offsetInCU: 0xADCC, offset: 0xADCC, size: 0x8, addend: 0x0, symName: __ZNKSt3__129__forward_list_const_iteratorIPNS_19__forward_list_nodeIiPvEEEdeB7v160006Ev, symObjAddr: 0xCE4, symBinAddr: 0x100001A68, symSize: 0x28 }
  - { offsetInCU: 0xADF2, offset: 0xADF2, size: 0x8, addend: 0x0, symName: __ZN16SingleLinkedListIiE14const_iteratorppEv, symObjAddr: 0xD0C, symBinAddr: 0x100001A90, symSize: 0x20 }
  - { offsetInCU: 0xAE19, offset: 0xAE19, size: 0x8, addend: 0x0, symName: __ZNSt3__129__forward_list_const_iteratorIPNS_19__forward_list_nodeIiPvEEEppB7v160006Ev, symObjAddr: 0xD2C, symBinAddr: 0x100001AB0, symSize: 0x3C }
  - { offsetInCU: 0xAE3F, offset: 0xAE3F, size: 0x8, addend: 0x0, symName: __ZNSt3__112forward_listIiNS_9allocatorIiEEED1Ev, symObjAddr: 0xD68, symBinAddr: 0x100001AEC, symSize: 0x2C }
  - { offsetInCU: 0xAE6C, offset: 0xAE6C, size: 0x8, addend: 0x0, symName: __ZN16SingleLinkedListIiED1Ev, symObjAddr: 0xD94, symBinAddr: 0x100001B18, symSize: 0x2C }
  - { offsetInCU: 0xAEB5, offset: 0xAEB5, size: 0x8, addend: 0x0, symName: __ZNKSt3__16chrono10time_pointINS0_12steady_clockENS0_8durationIxNS_5ratioILl1ELl1000000000EEEEEE16time_since_epochB7v160006Ev, symObjAddr: 0xE30, symBinAddr: 0x100001BB4, symSize: 0x20 }
  - { offsetInCU: 0xAEDB, offset: 0xAEDB, size: 0x8, addend: 0x0, symName: __ZNKSt3__16chrono8durationIxNS_5ratioILl1ELl1000000000EEEE5countB7v160006Ev, symObjAddr: 0xE50, symBinAddr: 0x100001BD4, symSize: 0x18 }
  - { offsetInCU: 0xAF0B, offset: 0xAF0B, size: 0x8, addend: 0x0, symName: __ZNSt3__16chrono8durationIxNS_5ratioILl1ELl1000000000EEEEC1B7v160006IxEERKT_PNS_9enable_ifIXaasr14is_convertibleIS8_xEE5valueooL_ZNS_17integral_constantIbLb0EE5valueEEntsr23treat_as_floating_pointIS6_EE5valueEvE4typeE, symObjAddr: 0xE68, symBinAddr: 0x100001BEC, symSize: 0x3C }
  - { offsetInCU: 0xAF58, offset: 0xAF58, size: 0x8, addend: 0x0, symName: __ZNSt3__16chrono8durationIxNS_5ratioILl1ELl1000000000EEEEC2B7v160006IxEERKT_PNS_9enable_ifIXaasr14is_convertibleIS8_xEE5valueooL_ZNS_17integral_constantIbLb0EE5valueEEntsr23treat_as_floating_pointIS6_EE5valueEvE4typeE, symObjAddr: 0xEA4, symBinAddr: 0x100001C28, symSize: 0x28 }
  - { offsetInCU: 0xAFA5, offset: 0xAFA5, size: 0x8, addend: 0x0, symName: __ZNSt3__16chrono8durationIdNS_5ratioILl1ELl1000EEEEC2B7v160006IxNS2_ILl1ELl1000000000EEEEERKNS1_IT_T0_EEPNS_9enable_ifIXaasr13__no_overflowIS8_S3_EE5valueooL_ZNS_17integral_constantIbLb1EE5valueEEaaeqsr13__no_overflowIS8_S3_E4typeE3denLi1Entsr23treat_as_floating_pointIS7_EE5valueEvE4typeE, symObjAddr: 0xECC, symBinAddr: 0x100001C50, symSize: 0x48 }
  - { offsetInCU: 0xB006, offset: 0xB006, size: 0x8, addend: 0x0, symName: __ZNSt3__16chrono8durationIdNS_5ratioILl1ELl1000EEEEC1B7v160006IdEERKT_PNS_9enable_ifIXaasr14is_convertibleIS8_dEE5valueooL_ZNS_17integral_constantIbLb1EE5valueEEntsr23treat_as_floating_pointIS6_EE5valueEvE4typeE, symObjAddr: 0xF94, symBinAddr: 0x100001D18, symSize: 0x3C }
  - { offsetInCU: 0xB053, offset: 0xB053, size: 0x8, addend: 0x0, symName: __ZNSt3__16chrono8durationIdNS_5ratioILl1ELl1000EEEEC2B7v160006IdEERKT_PNS_9enable_ifIXaasr14is_convertibleIS8_dEE5valueooL_ZNS_17integral_constantIbLb1EE5valueEEntsr23treat_as_floating_pointIS6_EE5valueEvE4typeE, symObjAddr: 0xFD0, symBinAddr: 0x100001D54, symSize: 0x28 }
  - { offsetInCU: 0xB0A0, offset: 0xB0A0, size: 0x8, addend: 0x0, symName: __ZNSt3__112forward_listIiNS_9allocatorIiEEED2Ev, symObjAddr: 0xFF8, symBinAddr: 0x100001D7C, symSize: 0x2C }
  - { offsetInCU: 0xB0CD, offset: 0xB0CD, size: 0x8, addend: 0x0, symName: __ZNSt3__119__forward_list_baseIiNS_9allocatorIiEEED2Ev, symObjAddr: 0x1024, symBinAddr: 0x100001DA8, symSize: 0x2C }
  - { offsetInCU: 0xB0F9, offset: 0xB0F9, size: 0x8, addend: 0x0, symName: __ZNSt3__119__forward_list_baseIiNS_9allocatorIiEEE5clearEv, symObjAddr: 0x1050, symBinAddr: 0x100001DD4, symSize: 0xA4 }
  - { offsetInCU: 0xB15A, offset: 0xB15A, size: 0x8, addend: 0x0, symName: __ZNSt3__119__forward_list_baseIiNS_9allocatorIiEEE7__allocB7v160006Ev, symObjAddr: 0x10F4, symBinAddr: 0x100001E78, symSize: 0x24 }
  - { offsetInCU: 0xB180, offset: 0xB180, size: 0x8, addend: 0x0, symName: __ZNSt3__119__forward_list_baseIiNS_9allocatorIiEEE14__before_beginB7v160006Ev, symObjAddr: 0x1118, symBinAddr: 0x100001E9C, symSize: 0x28 }
  - { offsetInCU: 0xB1AB, offset: 0xB1AB, size: 0x8, addend: 0x0, symName: __ZNSt3__116allocator_traitsINS_9allocatorINS_19__forward_list_nodeIiPvEEEEE7destroyB7v160006IivvEEvRS5_PT_, symObjAddr: 0x1140, symBinAddr: 0x100001EC4, symSize: 0x28 }
  - { offsetInCU: 0xB1E6, offset: 0xB1E6, size: 0x8, addend: 0x0, symName: __ZNSt3__116allocator_traitsINS_9allocatorINS_19__forward_list_nodeIiPvEEEEE10deallocateB7v160006ERS5_PS4_m, symObjAddr: 0x1174, symBinAddr: 0x100001EF8, symSize: 0x34 }
  - { offsetInCU: 0xB228, offset: 0xB228, size: 0x8, addend: 0x0, symName: __ZNSt3__117__compressed_pairINS_20__forward_begin_nodeIPNS_19__forward_list_nodeIiPvEEEENS_9allocatorIS4_EEE6secondB7v160006Ev, symObjAddr: 0x11A8, symBinAddr: 0x100001F2C, symSize: 0x24 }
  - { offsetInCU: 0xB24E, offset: 0xB24E, size: 0x8, addend: 0x0, symName: __ZNSt3__122__compressed_pair_elemINS_9allocatorINS_19__forward_list_nodeIiPvEEEELi1ELb1EE5__getB7v160006Ev, symObjAddr: 0x11CC, symBinAddr: 0x100001F50, symSize: 0x14 }
  - { offsetInCU: 0xB274, offset: 0xB274, size: 0x8, addend: 0x0, symName: __ZNSt3__114pointer_traitsIPNS_20__forward_begin_nodeIPNS_19__forward_list_nodeIiPvEEEEE10pointer_toB7v160006ERS6_, symObjAddr: 0x11E0, symBinAddr: 0x100001F64, symSize: 0x14 }
  - { offsetInCU: 0xB297, offset: 0xB297, size: 0x8, addend: 0x0, symName: __ZNSt3__117__compressed_pairINS_20__forward_begin_nodeIPNS_19__forward_list_nodeIiPvEEEENS_9allocatorIS4_EEE5firstB7v160006Ev, symObjAddr: 0x11F4, symBinAddr: 0x100001F78, symSize: 0x24 }
  - { offsetInCU: 0xB2BD, offset: 0xB2BD, size: 0x8, addend: 0x0, symName: __ZNSt3__122__compressed_pair_elemINS_20__forward_begin_nodeIPNS_19__forward_list_nodeIiPvEEEELi0ELb0EE5__getB7v160006Ev, symObjAddr: 0x1218, symBinAddr: 0x100001F9C, symSize: 0x14 }
  - { offsetInCU: 0xB2E3, offset: 0xB2E3, size: 0x8, addend: 0x0, symName: __ZNSt3__19allocatorINS_19__forward_list_nodeIiPvEEE10deallocateB7v160006EPS3_m, symObjAddr: 0x1260, symBinAddr: 0x100001FE4, symSize: 0x40 }
  - { offsetInCU: 0xB325, offset: 0xB325, size: 0x8, addend: 0x0, symName: __ZN16SingleLinkedListIiEC2Ev, symObjAddr: 0x13C8, symBinAddr: 0x10000214C, symSize: 0x7C }
  - { offsetInCU: 0xB350, offset: 0xB350, size: 0x8, addend: 0x0, symName: __ZN16SingleLinkedListIiE4NodeC1ERKiPS1_, symObjAddr: 0x1444, symBinAddr: 0x1000021C8, symSize: 0x3C }
  - { offsetInCU: 0xB397, offset: 0xB397, size: 0x8, addend: 0x0, symName: __ZN16SingleLinkedListIiE4NodeC2ERKiPS1_, symObjAddr: 0x1480, symBinAddr: 0x100002204, symSize: 0x30 }
  - { offsetInCU: 0xB3DE, offset: 0xB3DE, size: 0x8, addend: 0x0, symName: __ZN16SingleLinkedListIiED2Ev, symObjAddr: 0x14B0, symBinAddr: 0x100002234, symSize: 0x8C }
  - { offsetInCU: 0xB426, offset: 0xB426, size: 0x8, addend: 0x0, symName: __ZNSt12length_errorC1B7v160006EPKc, symObjAddr: 0x153C, symBinAddr: 0x1000022C0, symSize: 0x34 }
  - { offsetInCU: 0xB45E, offset: 0xB45E, size: 0x8, addend: 0x0, symName: __ZNSt12length_errorC2B7v160006EPKc, symObjAddr: 0x1570, symBinAddr: 0x1000022F4, symSize: 0x4C }
  - { offsetInCU: 0xB496, offset: 0xB496, size: 0x8, addend: 0x0, symName: __ZN16SingleLinkedListIiE8iteratorC1EPNS0_4NodeE, symObjAddr: 0x15BC, symBinAddr: 0x100002340, symSize: 0x34 }
  - { offsetInCU: 0xB4CF, offset: 0xB4CF, size: 0x8, addend: 0x0, symName: __ZN16SingleLinkedListIiE8iteratorC2EPNS0_4NodeE, symObjAddr: 0x15F0, symBinAddr: 0x100002374, symSize: 0x20 }
  - { offsetInCU: 0xB508, offset: 0xB508, size: 0x8, addend: 0x0, symName: __ZN16SingleLinkedListIiE14const_iteratorC2ERKNS0_8iteratorE, symObjAddr: 0x1610, symBinAddr: 0x100002394, symSize: 0x24 }
  - { offsetInCU: 0xB541, offset: 0xB541, size: 0x8, addend: 0x0, symName: __ZNSt3__111char_traitsIcE6lengthEPKc, symObjAddr: 0x1820, symBinAddr: 0x1000025A4, symSize: 0x34 }
  - { offsetInCU: 0xB582, offset: 0xB582, size: 0x8, addend: 0x0, symName: __ZNKSt3__113basic_ostreamIcNS_11char_traitsIcEEE6sentrycvbB7v160006Ev, symObjAddr: 0x1854, symBinAddr: 0x1000025D8, symSize: 0x1C }
  - { offsetInCU: 0xB5A8, offset: 0xB5A8, size: 0x8, addend: 0x0, symName: __ZNSt3__119ostreambuf_iteratorIcNS_11char_traitsIcEEEC1B7v160006ERNS_13basic_ostreamIcS2_EE, symObjAddr: 0x1AB0, symBinAddr: 0x100002834, symSize: 0x34 }
  - { offsetInCU: 0xB5E0, offset: 0xB5E0, size: 0x8, addend: 0x0, symName: __ZNKSt3__18ios_base5flagsB7v160006Ev, symObjAddr: 0x1AE4, symBinAddr: 0x100002868, symSize: 0x18 }
  - { offsetInCU: 0xB608, offset: 0xB608, size: 0x8, addend: 0x0, symName: __ZNKSt3__19basic_iosIcNS_11char_traitsIcEEE4fillB7v160006Ev, symObjAddr: 0x1AFC, symBinAddr: 0x100002880, symSize: 0x64 }
  - { offsetInCU: 0xB630, offset: 0xB630, size: 0x8, addend: 0x0, symName: __ZNKSt3__119ostreambuf_iteratorIcNS_11char_traitsIcEEE6failedB7v160006Ev, symObjAddr: 0x1B60, symBinAddr: 0x1000028E4, symSize: 0x24 }
  - { offsetInCU: 0xB656, offset: 0xB656, size: 0x8, addend: 0x0, symName: __ZNSt3__19basic_iosIcNS_11char_traitsIcEEE8setstateB7v160006Ej, symObjAddr: 0x1B84, symBinAddr: 0x100002908, symSize: 0x2C }
  - { offsetInCU: 0xB68B, offset: 0xB68B, size: 0x8, addend: 0x0, symName: __ZNKSt3__18ios_base5widthB7v160006Ev, symObjAddr: 0x1BB0, symBinAddr: 0x100002934, symSize: 0x18 }
  - { offsetInCU: 0xB6B3, offset: 0xB6B3, size: 0x8, addend: 0x0, symName: __ZNSt3__115basic_streambufIcNS_11char_traitsIcEEE5sputnB7v160006EPKcl, symObjAddr: 0x1BC8, symBinAddr: 0x10000294C, symSize: 0x3C }
  - { offsetInCU: 0xB6F5, offset: 0xB6F5, size: 0x8, addend: 0x0, symName: __ZNSt3__112basic_stringIcNS_11char_traitsIcEENS_9allocatorIcEEEC1B7v160006Emc, symObjAddr: 0x1C04, symBinAddr: 0x100002988, symSize: 0x3C }
  - { offsetInCU: 0xB73D, offset: 0xB73D, size: 0x8, addend: 0x0, symName: __ZNSt3__112basic_stringIcNS_11char_traitsIcEENS_9allocatorIcEEE4dataB7v160006Ev, symObjAddr: 0x1C40, symBinAddr: 0x1000029C4, symSize: 0x28 }
  - { offsetInCU: 0xB763, offset: 0xB763, size: 0x8, addend: 0x0, symName: __ZNSt3__18ios_base5widthB7v160006El, symObjAddr: 0x1C68, symBinAddr: 0x1000029EC, symSize: 0x2C }
  - { offsetInCU: 0xB7A9, offset: 0xB7A9, size: 0x8, addend: 0x0, symName: __ZNSt3__112basic_stringIcNS_11char_traitsIcEENS_9allocatorIcEEEC2B7v160006Emc, symObjAddr: 0x1C94, symBinAddr: 0x100002A18, symSize: 0x54 }
  - { offsetInCU: 0xB7F7, offset: 0xB7F7, size: 0x8, addend: 0x0, symName: __ZNSt3__117__compressed_pairINS_12basic_stringIcNS_11char_traitsIcEENS_9allocatorIcEEE5__repES5_EC1B7v160006INS_18__default_init_tagESA_EEOT_OT0_, symObjAddr: 0x1CE8, symBinAddr: 0x100002A6C, symSize: 0x3C }
  - { offsetInCU: 0xB84F, offset: 0xB84F, size: 0x8, addend: 0x0, symName: __ZNSt3__117__compressed_pairINS_12basic_stringIcNS_11char_traitsIcEENS_9allocatorIcEEE5__repES5_EC2B7v160006INS_18__default_init_tagESA_EEOT_OT0_, symObjAddr: 0x1D34, symBinAddr: 0x100002AB8, symSize: 0x3C }
  - { offsetInCU: 0xB8A7, offset: 0xB8A7, size: 0x8, addend: 0x0, symName: __ZNSt3__122__compressed_pair_elemINS_12basic_stringIcNS_11char_traitsIcEENS_9allocatorIcEEE5__repELi0ELb0EEC2B7v160006ENS_18__default_init_tagE, symObjAddr: 0x1D70, symBinAddr: 0x100002AF4, symSize: 0x14 }
  - { offsetInCU: 0xB8DC, offset: 0xB8DC, size: 0x8, addend: 0x0, symName: __ZNSt3__122__compressed_pair_elemINS_9allocatorIcEELi1ELb1EEC2B7v160006ENS_18__default_init_tagE, symObjAddr: 0x1D84, symBinAddr: 0x100002B08, symSize: 0x2C }
  - { offsetInCU: 0xB911, offset: 0xB911, size: 0x8, addend: 0x0, symName: __ZNSt3__19allocatorIcEC2B7v160006Ev, symObjAddr: 0x1DB0, symBinAddr: 0x100002B34, symSize: 0x2C }
  - { offsetInCU: 0xB93B, offset: 0xB93B, size: 0x8, addend: 0x0, symName: __ZNSt3__116__non_trivial_ifILb1ENS_9allocatorIcEEEC2B7v160006Ev, symObjAddr: 0x1DDC, symBinAddr: 0x100002B60, symSize: 0x14 }
  - { offsetInCU: 0xB965, offset: 0xB965, size: 0x8, addend: 0x0, symName: __ZNSt3__112basic_stringIcNS_11char_traitsIcEENS_9allocatorIcEEE13__get_pointerB7v160006Ev, symObjAddr: 0x1E04, symBinAddr: 0x100002B88, symSize: 0x54 }
  - { offsetInCU: 0xB98B, offset: 0xB98B, size: 0x8, addend: 0x0, symName: __ZNKSt3__112basic_stringIcNS_11char_traitsIcEENS_9allocatorIcEEE9__is_longB7v160006Ev, symObjAddr: 0x1E58, symBinAddr: 0x100002BDC, symSize: 0x38 }
  - { offsetInCU: 0xB9B1, offset: 0xB9B1, size: 0x8, addend: 0x0, symName: __ZNSt3__112basic_stringIcNS_11char_traitsIcEENS_9allocatorIcEEE18__get_long_pointerB7v160006Ev, symObjAddr: 0x1E90, symBinAddr: 0x100002C14, symSize: 0x28 }
  - { offsetInCU: 0xB9D7, offset: 0xB9D7, size: 0x8, addend: 0x0, symName: __ZNSt3__112basic_stringIcNS_11char_traitsIcEENS_9allocatorIcEEE19__get_short_pointerB7v160006Ev, symObjAddr: 0x1EB8, symBinAddr: 0x100002C3C, symSize: 0x28 }
  - { offsetInCU: 0xB9FD, offset: 0xB9FD, size: 0x8, addend: 0x0, symName: __ZNKSt3__117__compressed_pairINS_12basic_stringIcNS_11char_traitsIcEENS_9allocatorIcEEE5__repES5_E5firstB7v160006Ev, symObjAddr: 0x1EE0, symBinAddr: 0x100002C64, symSize: 0x24 }
  - { offsetInCU: 0xBA23, offset: 0xBA23, size: 0x8, addend: 0x0, symName: __ZNKSt3__122__compressed_pair_elemINS_12basic_stringIcNS_11char_traitsIcEENS_9allocatorIcEEE5__repELi0ELb0EE5__getB7v160006Ev, symObjAddr: 0x1F04, symBinAddr: 0x100002C88, symSize: 0x14 }
  - { offsetInCU: 0xBA49, offset: 0xBA49, size: 0x8, addend: 0x0, symName: __ZNSt3__117__compressed_pairINS_12basic_stringIcNS_11char_traitsIcEENS_9allocatorIcEEE5__repES5_E5firstB7v160006Ev, symObjAddr: 0x1F18, symBinAddr: 0x100002C9C, symSize: 0x24 }
  - { offsetInCU: 0xBA6F, offset: 0xBA6F, size: 0x8, addend: 0x0, symName: __ZNSt3__122__compressed_pair_elemINS_12basic_stringIcNS_11char_traitsIcEENS_9allocatorIcEEE5__repELi0ELb0EE5__getB7v160006Ev, symObjAddr: 0x1F3C, symBinAddr: 0x100002CC0, symSize: 0x14 }
  - { offsetInCU: 0xBA95, offset: 0xBA95, size: 0x8, addend: 0x0, symName: __ZNSt3__114pointer_traitsIPcE10pointer_toB7v160006ERc, symObjAddr: 0x1F50, symBinAddr: 0x100002CD4, symSize: 0x14 }
  - { offsetInCU: 0xBAB8, offset: 0xBAB8, size: 0x8, addend: 0x0, symName: __ZNSt3__119ostreambuf_iteratorIcNS_11char_traitsIcEEEC2B7v160006ERNS_13basic_ostreamIcS2_EE, symObjAddr: 0x1F64, symBinAddr: 0x100002CE8, symSize: 0x54 }
  - { offsetInCU: 0xBAF0, offset: 0xBAF0, size: 0x8, addend: 0x0, symName: __ZNKSt3__19basic_iosIcNS_11char_traitsIcEEE5rdbufB7v160006Ev, symObjAddr: 0x1FB8, symBinAddr: 0x100002D3C, symSize: 0x24 }
  - { offsetInCU: 0xBB18, offset: 0xBB18, size: 0x8, addend: 0x0, symName: __ZNKSt3__18ios_base5rdbufB7v160006Ev, symObjAddr: 0x1FDC, symBinAddr: 0x100002D60, symSize: 0x18 }
  - { offsetInCU: 0xBB3E, offset: 0xBB3E, size: 0x8, addend: 0x0, symName: __ZNSt3__111char_traitsIcE11eq_int_typeEii, symObjAddr: 0x1FF4, symBinAddr: 0x100002D78, symSize: 0x28 }
  - { offsetInCU: 0xBB6F, offset: 0xBB6F, size: 0x8, addend: 0x0, symName: __ZNSt3__111char_traitsIcE3eofEv, symObjAddr: 0x201C, symBinAddr: 0x100002DA0, symSize: 0x8 }
  - { offsetInCU: 0xBB83, offset: 0xBB83, size: 0x8, addend: 0x0, symName: __ZNKSt3__19basic_iosIcNS_11char_traitsIcEEE5widenB7v160006Ec, symObjAddr: 0x2024, symBinAddr: 0x100002DA8, symSize: 0x84 }
  - { offsetInCU: 0xBBEC, offset: 0xBBEC, size: 0x8, addend: 0x0, symName: __ZNKSt3__15ctypeIcE5widenB7v160006Ec, symObjAddr: 0x20D4, symBinAddr: 0x100002E58, symSize: 0x38 }
  - { offsetInCU: 0xBC21, offset: 0xBC21, size: 0x8, addend: 0x0, symName: __ZNSt3__18ios_base8setstateB7v160006Ej, symObjAddr: 0x210C, symBinAddr: 0x100002E90, symSize: 0x34 }
  - { offsetInCU: 0xBC58, offset: 0xBC58, size: 0x8, addend: 0x0, symName: __ZNSt3__112forward_listIiNS_9allocatorIiEEEC2B7v160006Ev, symObjAddr: 0x2164, symBinAddr: 0x100002EE8, symSize: 0x2C }
  - { offsetInCU: 0xBC82, offset: 0xBC82, size: 0x8, addend: 0x0, symName: __ZNSt3__119__forward_list_baseIiNS_9allocatorIiEEEC2B7v160006Ev, symObjAddr: 0x2190, symBinAddr: 0x100002F14, symSize: 0x4C }
  - { offsetInCU: 0xBCAC, offset: 0xBCAC, size: 0x8, addend: 0x0, symName: __ZNSt3__120__forward_begin_nodeIPNS_19__forward_list_nodeIiPvEEEC1B7v160006Ev, symObjAddr: 0x21DC, symBinAddr: 0x100002F60, symSize: 0x2C }
  - { offsetInCU: 0xBCDC, offset: 0xBCDC, size: 0x8, addend: 0x0, symName: __ZNSt3__117__compressed_pairINS_20__forward_begin_nodeIPNS_19__forward_list_nodeIiPvEEEENS_9allocatorIS4_EEEC1B7v160006IS6_NS_18__default_init_tagEEEOT_OT0_, symObjAddr: 0x2208, symBinAddr: 0x100002F8C, symSize: 0x3C }
  - { offsetInCU: 0xBD34, offset: 0xBD34, size: 0x8, addend: 0x0, symName: __ZNSt3__120__forward_begin_nodeIPNS_19__forward_list_nodeIiPvEEEC2B7v160006Ev, symObjAddr: 0x2244, symBinAddr: 0x100002FC8, symSize: 0x18 }
  - { offsetInCU: 0xBD5E, offset: 0xBD5E, size: 0x8, addend: 0x0, symName: __ZNSt3__117__compressed_pairINS_20__forward_begin_nodeIPNS_19__forward_list_nodeIiPvEEEENS_9allocatorIS4_EEEC2B7v160006IS6_NS_18__default_init_tagEEEOT_OT0_, symObjAddr: 0x225C, symBinAddr: 0x100002FE0, symSize: 0x40 }
  - { offsetInCU: 0xBDB6, offset: 0xBDB6, size: 0x8, addend: 0x0, symName: __ZNSt3__122__compressed_pair_elemINS_20__forward_begin_nodeIPNS_19__forward_list_nodeIiPvEEEELi0ELb0EEC2B7v160006IS6_vEEOT_, symObjAddr: 0x229C, symBinAddr: 0x100003020, symSize: 0x24 }
  - { offsetInCU: 0xBDF8, offset: 0xBDF8, size: 0x8, addend: 0x0, symName: __ZNSt3__122__compressed_pair_elemINS_9allocatorINS_19__forward_list_nodeIiPvEEEELi1ELb1EEC2B7v160006ENS_18__default_init_tagE, symObjAddr: 0x22C0, symBinAddr: 0x100003044, symSize: 0x2C }
  - { offsetInCU: 0xBE2D, offset: 0xBE2D, size: 0x8, addend: 0x0, symName: __ZNSt3__19allocatorINS_19__forward_list_nodeIiPvEEEC2B7v160006Ev, symObjAddr: 0x22EC, symBinAddr: 0x100003070, symSize: 0x2C }
  - { offsetInCU: 0xBE57, offset: 0xBE57, size: 0x8, addend: 0x0, symName: __ZNSt3__116__non_trivial_ifILb1ENS_9allocatorINS_19__forward_list_nodeIiPvEEEEEC2B7v160006Ev, symObjAddr: 0x2318, symBinAddr: 0x10000309C, symSize: 0x14 }
  - { offsetInCU: 0xBE81, offset: 0xBE81, size: 0x8, addend: 0x0, symName: __ZNSt3__116allocator_traitsINS_9allocatorINS_19__forward_list_nodeIiPvEEEEE8allocateB7v160006ERS5_m, symObjAddr: 0x232C, symBinAddr: 0x1000030B0, symSize: 0x2C }
  - { offsetInCU: 0xBEB9, offset: 0xBEB9, size: 0x8, addend: 0x0, symName: __ZNSt3__122__allocator_destructorINS_9allocatorINS_19__forward_list_nodeIiPvEEEEEC1B7v160006ERS5_m, symObjAddr: 0x2358, symBinAddr: 0x1000030DC, symSize: 0x3C }
  - { offsetInCU: 0xBF8D, offset: 0xBF8D, size: 0x8, addend: 0x0, symName: __ZNSt3__110unique_ptrINS_19__forward_list_nodeIiPvEENS_22__allocator_destructorINS_9allocatorIS3_EEEEEC1B7v160006ILb1EvEEPS3_NS_16__dependent_typeINS_27__unique_ptr_deleter_sfinaeIS7_EEXT_EE20__good_rval_ref_typeE, symObjAddr: 0x2394, symBinAddr: 0x100003118, symSize: 0x3C }
  - { offsetInCU: 0xBFDE, offset: 0xBFDE, size: 0x8, addend: 0x0, symName: __ZNSt3__116allocator_traitsINS_9allocatorINS_19__forward_list_nodeIiPvEEEEE9constructB7v160006IiJRKiEvvEEvRS5_PT_DpOT0_, symObjAddr: 0x23D0, symBinAddr: 0x100003154, symSize: 0x30 }
  - { offsetInCU: 0xC033, offset: 0xC033, size: 0x8, addend: 0x0, symName: __ZNKSt3__110unique_ptrINS_19__forward_list_nodeIiPvEENS_22__allocator_destructorINS_9allocatorIS3_EEEEEptB7v160006Ev, symObjAddr: 0x2400, symBinAddr: 0x100003184, symSize: 0x28 }
  - { offsetInCU: 0xC059, offset: 0xC059, size: 0x8, addend: 0x0, symName: __ZNSt3__110unique_ptrINS_19__forward_list_nodeIiPvEENS_22__allocator_destructorINS_9allocatorIS3_EEEEE7releaseB7v160006Ev, symObjAddr: 0x2428, symBinAddr: 0x1000031AC, symSize: 0x44 }
  - { offsetInCU: 0xC08E, offset: 0xC08E, size: 0x8, addend: 0x0, symName: __ZNSt3__110unique_ptrINS_19__forward_list_nodeIiPvEENS_22__allocator_destructorINS_9allocatorIS3_EEEEED1B7v160006Ev, symObjAddr: 0x246C, symBinAddr: 0x1000031F0, symSize: 0x2C }
  - { offsetInCU: 0xC0B8, offset: 0xC0B8, size: 0x8, addend: 0x0, symName: __ZNSt3__19allocatorINS_19__forward_list_nodeIiPvEEE8allocateB7v160006Em, symObjAddr: 0x2498, symBinAddr: 0x10000321C, symSize: 0x58 }
  - { offsetInCU: 0xC0F6, offset: 0xC0F6, size: 0x8, addend: 0x0, symName: __ZNSt3__116allocator_traitsINS_9allocatorINS_19__forward_list_nodeIiPvEEEEE8max_sizeB7v160006IS5_vvEEmRKS5_, symObjAddr: 0x24F0, symBinAddr: 0x100003274, symSize: 0x28 }
  - { offsetInCU: 0xC122, offset: 0xC122, size: 0x8, addend: 0x0, symName: __ZNSt3__114numeric_limitsImE3maxB7v160006Ev, symObjAddr: 0x25AC, symBinAddr: 0x100003330, symSize: 0x14 }
  - { offsetInCU: 0xC136, offset: 0xC136, size: 0x8, addend: 0x0, symName: __ZNSt3__123__libcpp_numeric_limitsImLb1EE3maxB7v160006Ev, symObjAddr: 0x25C0, symBinAddr: 0x100003344, symSize: 0x8 }
  - { offsetInCU: 0xC14A, offset: 0xC14A, size: 0x8, addend: 0x0, symName: __ZNSt3__122__allocator_destructorINS_9allocatorINS_19__forward_list_nodeIiPvEEEEEC2B7v160006ERS5_m, symObjAddr: 0x2618, symBinAddr: 0x10000339C, symSize: 0x2C }
  - { offsetInCU: 0xC190, offset: 0xC190, size: 0x8, addend: 0x0, symName: __ZNSt3__110unique_ptrINS_19__forward_list_nodeIiPvEENS_22__allocator_destructorINS_9allocatorIS3_EEEEEC2B7v160006ILb1EvEEPS3_NS_16__dependent_typeINS_27__unique_ptr_deleter_sfinaeIS7_EEXT_EE20__good_rval_ref_typeE, symObjAddr: 0x2644, symBinAddr: 0x1000033C8, symSize: 0x48 }
  - { offsetInCU: 0xC1E1, offset: 0xC1E1, size: 0x8, addend: 0x0, symName: __ZNSt3__117__compressed_pairIPNS_19__forward_list_nodeIiPvEENS_22__allocator_destructorINS_9allocatorIS3_EEEEEC1B7v160006IRS4_S8_EEOT_OT0_, symObjAddr: 0x268C, symBinAddr: 0x100003410, symSize: 0x3C }
  - { offsetInCU: 0xC239, offset: 0xC239, size: 0x8, addend: 0x0, symName: __ZNSt3__117__compressed_pairIPNS_19__forward_list_nodeIiPvEENS_22__allocator_destructorINS_9allocatorIS3_EEEEEC2B7v160006IRS4_S8_EEOT_OT0_, symObjAddr: 0x26C8, symBinAddr: 0x10000344C, symSize: 0x48 }
  - { offsetInCU: 0xC291, offset: 0xC291, size: 0x8, addend: 0x0, symName: __ZNSt3__122__compressed_pair_elemIPNS_19__forward_list_nodeIiPvEELi0ELb0EEC2B7v160006IRS4_vEEOT_, symObjAddr: 0x2710, symBinAddr: 0x100003494, symSize: 0x24 }
  - { offsetInCU: 0xC2D3, offset: 0xC2D3, size: 0x8, addend: 0x0, symName: __ZNSt3__122__compressed_pair_elemINS_22__allocator_destructorINS_9allocatorINS_19__forward_list_nodeIiPvEEEEEELi1ELb0EEC2B7v160006IS7_vEEOT_, symObjAddr: 0x2734, symBinAddr: 0x1000034B8, symSize: 0x24 }
  - { offsetInCU: 0xC315, offset: 0xC315, size: 0x8, addend: 0x0, symName: __ZNKSt3__117__compressed_pairIPNS_19__forward_list_nodeIiPvEENS_22__allocator_destructorINS_9allocatorIS3_EEEEE5firstB7v160006Ev, symObjAddr: 0x2784, symBinAddr: 0x100003508, symSize: 0x24 }
  - { offsetInCU: 0xC33B, offset: 0xC33B, size: 0x8, addend: 0x0, symName: __ZNKSt3__122__compressed_pair_elemIPNS_19__forward_list_nodeIiPvEELi0ELb0EE5__getB7v160006Ev, symObjAddr: 0x27A8, symBinAddr: 0x10000352C, symSize: 0x14 }
  - { offsetInCU: 0xC361, offset: 0xC361, size: 0x8, addend: 0x0, symName: __ZNSt3__117__compressed_pairIPNS_19__forward_list_nodeIiPvEENS_22__allocator_destructorINS_9allocatorIS3_EEEEE5firstB7v160006Ev, symObjAddr: 0x27BC, symBinAddr: 0x100003540, symSize: 0x24 }
  - { offsetInCU: 0xC387, offset: 0xC387, size: 0x8, addend: 0x0, symName: __ZNSt3__122__compressed_pair_elemIPNS_19__forward_list_nodeIiPvEELi0ELb0EE5__getB7v160006Ev, symObjAddr: 0x27E0, symBinAddr: 0x100003564, symSize: 0x14 }
  - { offsetInCU: 0xC3AD, offset: 0xC3AD, size: 0x8, addend: 0x0, symName: __ZNSt3__110unique_ptrINS_19__forward_list_nodeIiPvEENS_22__allocator_destructorINS_9allocatorIS3_EEEEED2B7v160006Ev, symObjAddr: 0x27F4, symBinAddr: 0x100003578, symSize: 0x30 }
  - { offsetInCU: 0xC3D7, offset: 0xC3D7, size: 0x8, addend: 0x0, symName: __ZNSt3__110unique_ptrINS_19__forward_list_nodeIiPvEENS_22__allocator_destructorINS_9allocatorIS3_EEEEE5resetB7v160006EPS3_, symObjAddr: 0x2824, symBinAddr: 0x1000035A8, symSize: 0x78 }
  - { offsetInCU: 0xC41B, offset: 0xC41B, size: 0x8, addend: 0x0, symName: __ZNSt3__117__compressed_pairIPNS_19__forward_list_nodeIiPvEENS_22__allocator_destructorINS_9allocatorIS3_EEEEE6secondB7v160006Ev, symObjAddr: 0x289C, symBinAddr: 0x100003620, symSize: 0x28 }
  - { offsetInCU: 0xC441, offset: 0xC441, size: 0x8, addend: 0x0, symName: __ZNSt3__122__allocator_destructorINS_9allocatorINS_19__forward_list_nodeIiPvEEEEEclB7v160006EPS4_, symObjAddr: 0x28C4, symBinAddr: 0x100003648, symSize: 0x34 }
  - { offsetInCU: 0xC475, offset: 0xC475, size: 0x8, addend: 0x0, symName: __ZNSt3__122__compressed_pair_elemINS_22__allocator_destructorINS_9allocatorINS_19__forward_list_nodeIiPvEEEEEELi1ELb0EE5__getB7v160006Ev, symObjAddr: 0x28F8, symBinAddr: 0x10000367C, symSize: 0x14 }
  - { offsetInCU: 0xC49B, offset: 0xC49B, size: 0x8, addend: 0x0, symName: __ZNSt3__123__forward_list_iteratorIPNS_19__forward_list_nodeIiPvEEEC1B7v160006EPNS_20__forward_begin_nodeIS4_EE, symObjAddr: 0x290C, symBinAddr: 0x100003690, symSize: 0x34 }
  - { offsetInCU: 0xC4D4, offset: 0xC4D4, size: 0x8, addend: 0x0, symName: __ZNSt3__123__forward_list_iteratorIPNS_19__forward_list_nodeIiPvEEEC2B7v160006EPNS_20__forward_begin_nodeIS4_EE, symObjAddr: 0x2940, symBinAddr: 0x1000036C4, symSize: 0x48 }
  - { offsetInCU: 0xC50D, offset: 0xC50D, size: 0x8, addend: 0x0, symName: __ZNSt3__121__forward_node_traitsIPNS_19__forward_list_nodeIiPvEEE14__as_iter_nodeB7v160006EPNS_20__forward_begin_nodeIS4_EE, symObjAddr: 0x2988, symBinAddr: 0x10000370C, symSize: 0x14 }
  - { offsetInCU: 0xC531, offset: 0xC531, size: 0x8, addend: 0x0, symName: __ZNSt3__129__forward_list_const_iteratorIPNS_19__forward_list_nodeIiPvEEEC2B7v160006ENS_23__forward_list_iteratorIS4_EE, symObjAddr: 0x299C, symBinAddr: 0x100003720, symSize: 0x20 }
  - { offsetInCU: 0xC56A, offset: 0xC56A, size: 0x8, addend: 0x0, symName: __ZNKSt3__129__forward_list_const_iteratorIPNS_19__forward_list_nodeIiPvEEE11__get_beginEv, symObjAddr: 0x29BC, symBinAddr: 0x100003740, symSize: 0x18 }
  - { offsetInCU: 0xC590, offset: 0xC590, size: 0x8, addend: 0x0, symName: __ZNSt3__123__forward_list_iteratorIPNS_19__forward_list_nodeIiPvEEEC1B7v160006ES4_, symObjAddr: 0x29D4, symBinAddr: 0x100003758, symSize: 0x34 }
  - { offsetInCU: 0xC5C9, offset: 0xC5C9, size: 0x8, addend: 0x0, symName: __ZNSt3__123__forward_list_iteratorIPNS_19__forward_list_nodeIiPvEEEC2B7v160006ES4_, symObjAddr: 0x2A08, symBinAddr: 0x10000378C, symSize: 0x48 }
  - { offsetInCU: 0xC602, offset: 0xC602, size: 0x8, addend: 0x0, symName: __ZNSt3__121__forward_node_traitsIPNS_19__forward_list_nodeIiPvEEE14__as_iter_nodeB7v160006ES4_, symObjAddr: 0x2A50, symBinAddr: 0x1000037D4, symSize: 0x14 }
  - { offsetInCU: 0xC626, offset: 0xC626, size: 0x8, addend: 0x0, symName: __ZNKSt3__119__forward_list_baseIiNS_9allocatorIiEEE14__before_beginB7v160006Ev, symObjAddr: 0x2A64, symBinAddr: 0x1000037E8, symSize: 0x28 }
  - { offsetInCU: 0xC64C, offset: 0xC64C, size: 0x8, addend: 0x0, symName: __ZNSt3__129__forward_list_const_iteratorIPNS_19__forward_list_nodeIiPvEEEC1B7v160006ES4_, symObjAddr: 0x2A8C, symBinAddr: 0x100003810, symSize: 0x34 }
  - { offsetInCU: 0xC685, offset: 0xC685, size: 0x8, addend: 0x0, symName: __ZNKSt3__117__compressed_pairINS_20__forward_begin_nodeIPNS_19__forward_list_nodeIiPvEEEENS_9allocatorIS4_EEE5firstB7v160006Ev, symObjAddr: 0x2AC0, symBinAddr: 0x100003844, symSize: 0x24 }
  - { offsetInCU: 0xC6AB, offset: 0xC6AB, size: 0x8, addend: 0x0, symName: __ZNKSt3__122__compressed_pair_elemINS_20__forward_begin_nodeIPNS_19__forward_list_nodeIiPvEEEELi0ELb0EE5__getB7v160006Ev, symObjAddr: 0x2AE4, symBinAddr: 0x100003868, symSize: 0x14 }
  - { offsetInCU: 0xC6D1, offset: 0xC6D1, size: 0x8, addend: 0x0, symName: __ZNSt3__129__forward_list_const_iteratorIPNS_19__forward_list_nodeIiPvEEEC2B7v160006ES4_, symObjAddr: 0x2AF8, symBinAddr: 0x10000387C, symSize: 0x3C }
  - { offsetInCU: 0xC70A, offset: 0xC70A, size: 0x8, addend: 0x0, symName: __ZN16SingleLinkedListIiE14const_iteratorC1EPNS0_4NodeE, symObjAddr: 0x2B34, symBinAddr: 0x1000038B8, symSize: 0x34 }
  - { offsetInCU: 0xC743, offset: 0xC743, size: 0x8, addend: 0x0, symName: __ZN16SingleLinkedListIiE14const_iteratorC2EPNS0_4NodeE, symObjAddr: 0x2B68, symBinAddr: 0x1000038EC, symSize: 0x20 }
  - { offsetInCU: 0xC77C, offset: 0xC77C, size: 0x8, addend: 0x0, symName: __ZNKSt3__129__forward_list_const_iteratorIPNS_19__forward_list_nodeIiPvEEE25__get_unsafe_node_pointerEv, symObjAddr: 0x2B88, symBinAddr: 0x10000390C, symSize: 0x18 }
...
